	.cpu cortex-m4
	.eabi_attribute 27, 1
	.eabi_attribute 28, 1
	.eabi_attribute 20, 1
	.eabi_attribute 21, 1
	.eabi_attribute 23, 3
	.eabi_attribute 24, 1
	.eabi_attribute 25, 1
	.eabi_attribute 26, 1
	.eabi_attribute 30, 6
	.eabi_attribute 34, 1
	.eabi_attribute 18, 4
	.file	"movementAnalysis.c"
	.text
.Ltext0:
	.section	.bss.delayTimerInitialized,"aw",%nobits
	.type	delayTimerInitialized, %object
	.size	delayTimerInitialized, 1
delayTimerInitialized:
	.space	1
	.section	.bss.delaySample,"aw",%nobits
	.type	delaySample, %object
	.size	delaySample, 1
delaySample:
	.space	1
	.section	.bss.delay_timer_id_data,"aw",%nobits
	.align	2
	.type	delay_timer_id_data, %object
	.size	delay_timer_id_data, 32
delay_timer_id_data:
	.space	32
	.section	.rodata.delay_timer_id,"a"
	.align	2
	.type	delay_timer_id, %object
	.size	delay_timer_id, 4
delay_timer_id:
	.word	delay_timer_id_data
	.global	__aeabi_dcmplt
	.section	.text.analysis,"ax",%progbits
	.align	1
	.global	analysis
	.syntax unified
	.thumb
	.thumb_func
	.fpu fpv4-sp-d16
	.type	analysis, %function
analysis:
.LFB207:
	.file 1 "C:\\Users\\Keld\\Documents\\GitHub\\pro5_unitek\\code\\ss_twr_init\\movementAnalysis\\movementAnalysis.c"
	.loc 1 19 1
	@ args = 0, pretend = 0, frame = 40
	@ frame_needed = 0, uses_anonymous_args = 0
	push	{lr}
.LCFI0:
	sub	sp, sp, #44
.LCFI1:
	str	r0, [sp, #12]
	vstr.64	d0, [sp]
	.loc 1 20 29
	ldr	r3, [sp, #12]
	vldr.64	d7, [r3, #56]
	ldr	r3, [sp, #12]
	vldr.64	d6, [r3, #64]
	ldr	r3, [sp, #12]
	vldr.64	d5, [r3, #72]
	vmov.f32	s6, s10
	vmov.f32	s7, s11
	vmov.f32	s4, s12
	vmov.f32	s5, s13
	vmov.f32	s2, s14
	vmov.f32	s3, s15
	vldr.64	d0, [sp]
	bl	ma_filter4
	vstr.64	d0, [sp, #32]
	.loc 1 21 21
	ldr	r3, [sp, #12]
	vldr.64	d7, [r3, #48]
	vmov.f32	s2, s14
	vmov.f32	s3, s15
	vldr.64	d0, [sp, #32]
	bl	central_difference
	vstr.64	d0, [sp, #24]
	.loc 1 23 23
	ldr	r3, [sp, #12]
	ldrd	r2, [r3, #64]
	.loc 1 23 18
	ldr	r1, [sp, #12]
	strd	r2, [r1, #72]
	.loc 1 24 23
	ldr	r3, [sp, #12]
	ldrd	r2, [r3, #56]
	.loc 1 24 18
	ldr	r1, [sp, #12]
	strd	r2, [r1, #64]
	.loc 1 25 18
	ldr	r1, [sp, #12]
	ldrd	r2, [sp]
	strd	r2, [r1, #56]
	.loc 1 26 22
	ldr	r3, [sp, #12]
	ldrd	r2, [r3, #40]
	.loc 1 26 17
	ldr	r1, [sp, #12]
	strd	r2, [r1, #48]
	.loc 1 27 22
	ldr	r3, [sp, #12]
	ldrd	r2, [r3, #32]
	.loc 1 27 17
	ldr	r1, [sp, #12]
	strd	r2, [r1, #40]
	.loc 1 28 16
	ldr	r1, [sp, #12]
	ldrd	r2, [sp, #32]
	strd	r2, [r1, #32]
	.loc 1 30 19
	ldr	r3, .L14+8
	ldrb	r3, [r3]	@ zero_extendqisi2
	.loc 1 30 6
	cmp	r3, #0
	beq	.L2
	.loc 1 31 12
	movs	r3, #0
	b	.L1
.L2:
	.loc 1 34 6
	mov	r2, #858993459
	ldr	r3, .L14+12
	ldrd	r0, [sp, #32]
	bl	__aeabi_dcmplt
.LVL0:
	mov	r3, r0
	cmp	r3, #0
	beq	.L12
	.loc 1 35 8
	adr	r3, .L14
	ldrd	r2, [r3]
	ldrd	r0, [sp, #24]
	bl	__aeabi_dcmplt
.LVL1:
	mov	r3, r0
	cmp	r3, #0
	beq	.L13
.LBB2:
	.loc 1 36 10
	ldr	r3, [sp, #12]
	ldr	r3, [r3, #80]
	.loc 1 36 13
	adds	r2, r3, #1
	ldr	r3, [sp, #12]
	str	r2, [r3, #80]
	.loc 1 37 16
	ldr	r3, [sp, #12]
	ldr	r3, [r3, #80]
	.loc 1 37 12
	cmp	r3, #3
	bne	.L8
	.loc 1 38 18
	ldr	r3, [sp, #12]
	movs	r2, #0
	str	r2, [r3, #80]
	.loc 1 39 18
	movs	r3, #1
	b	.L1
.L8:
	.loc 1 42 18
	ldr	r3, .L14+16
	movs	r2, #0
	movs	r1, #205
	mov	r0, r3
	bl	app_timer_start
	str	r0, [sp, #20]
.LBB3:
	.loc 1 43 7
	ldr	r3, [sp, #20]
	str	r3, [sp, #16]
	ldr	r3, [sp, #16]
	cmp	r3, #0
	beq	.L9
	.loc 1 43 7 is_stmt 0 discriminator 1
	ldr	r0, [sp, #16]
	bl	app_error_handler_bare
.L9:
.LBE3:
	.loc 1 44 19 is_stmt 1
	ldr	r3, .L14+8
	movs	r2, #1
	strb	r2, [r3]
	.loc 1 45 14
	movs	r3, #0
	b	.L1
.L13:
.LBE2:
	.loc 1 48 16
	ldr	r3, [sp, #12]
	movs	r2, #0
	str	r2, [r3, #80]
	.loc 1 49 16
	movs	r3, #0
	b	.L1
.L12:
.L1:
	.loc 1 53 1
	mov	r0, r3
	add	sp, sp, #44
.LCFI2:
	@ sp needed
	ldr	pc, [sp], #4
.L15:
	.align	3
.L14:
	.word	1202590843
	.word	1065646817
	.word	delaySample
	.word	1072902963
	.word	delay_timer_id_data
.LFE207:
	.size	analysis, .-analysis
	.section	.text.delayTimerhandler,"ax",%progbits
	.align	1
	.syntax unified
	.thumb
	.thumb_func
	.fpu fpv4-sp-d16
	.type	delayTimerhandler, %function
delayTimerhandler:
.LFB208:
	.loc 1 58 49
	@ args = 0, pretend = 0, frame = 8
	@ frame_needed = 0, uses_anonymous_args = 0
	@ link register save eliminated.
	sub	sp, sp, #8
.LCFI3:
	str	r0, [sp, #4]
	.loc 1 59 15
	ldr	r3, .L17
	movs	r2, #0
	strb	r2, [r3]
	.loc 1 60 1
	nop
	add	sp, sp, #8
.LCFI4:
	@ sp needed
	bx	lr
.L18:
	.align	2
.L17:
	.word	delaySample
.LFE208:
	.size	delayTimerhandler, .-delayTimerhandler
	.section	.text.createDelayTimer,"ax",%progbits
	.align	1
	.syntax unified
	.thumb
	.thumb_func
	.fpu fpv4-sp-d16
	.type	createDelayTimer, %function
createDelayTimer:
.LFB209:
	.loc 1 67 55
	@ args = 0, pretend = 0, frame = 16
	@ frame_needed = 0, uses_anonymous_args = 0
	push	{lr}
.LCFI5:
	sub	sp, sp, #20
.LCFI6:
	str	r0, [sp, #4]
	.loc 1 69 14
	add	r3, sp, #4
	ldr	r2, .L22
	movs	r1, #0
	mov	r0, r3
	bl	app_timer_create
	str	r0, [sp, #12]
.LBB4:
	.loc 1 72 3
	ldr	r3, [sp, #12]
	str	r3, [sp, #8]
	ldr	r3, [sp, #8]
	cmp	r3, #0
	beq	.L21
	.loc 1 72 3 is_stmt 0 discriminator 1
	ldr	r0, [sp, #8]
	bl	app_error_handler_bare
.L21:
.LBE4:
	.loc 1 73 1 is_stmt 1
	nop
	add	sp, sp, #20
.LCFI7:
	@ sp needed
	ldr	pc, [sp], #4
.L23:
	.align	2
.L22:
	.word	delayTimerhandler
.LFE209:
	.size	createDelayTimer, .-createDelayTimer
	.section .rodata
	.align	2
.LC0:
	.ascii	"delay timer is already intialized!\000"
	.section	.text.setupDelayTimer,"ax",%progbits
	.align	1
	.global	setupDelayTimer
	.syntax unified
	.thumb
	.thumb_func
	.fpu fpv4-sp-d16
	.type	setupDelayTimer, %function
setupDelayTimer:
.LFB210:
	.loc 1 78 31
	@ args = 0, pretend = 0, frame = 0
	@ frame_needed = 0, uses_anonymous_args = 0
	push	{r3, lr}
.LCFI8:
	.loc 1 79 7
	ldr	r3, .L28
	ldrb	r3, [r3]	@ zero_extendqisi2
	eor	r3, r3, #1
	uxtb	r3, r3
	.loc 1 79 6
	cmp	r3, #0
	beq	.L25
	.loc 1 80 5
	ldr	r3, .L28+4
	mov	r0, r3
	bl	createDelayTimer
	.loc 1 81 27
	ldr	r3, .L28
	movs	r2, #1
	strb	r2, [r3]
	.loc 1 85 1
	b	.L27
.L25:
	.loc 1 83 5
	ldr	r0, .L28+8
	bl	printf
.L27:
	.loc 1 85 1
	nop
	pop	{r3, pc}
.L29:
	.align	2
.L28:
	.word	delayTimerInitialized
	.word	delay_timer_id_data
	.word	.LC0
.LFE210:
	.size	setupDelayTimer, .-setupDelayTimer
	.section	.text.abs_val,"ax",%progbits
	.align	1
	.global	abs_val
	.syntax unified
	.thumb
	.thumb_func
	.fpu fpv4-sp-d16
	.type	abs_val, %function
abs_val:
.LFB211:
	.loc 1 94 1
	@ args = 0, pretend = 0, frame = 8
	@ frame_needed = 0, uses_anonymous_args = 0
	push	{r4, r5, lr}
.LCFI9:
	sub	sp, sp, #12
.LCFI10:
	vstr.64	d0, [sp]
	.loc 1 95 5
	mov	r2, #0
	mov	r3, #0
	ldrd	r0, [sp]
	bl	__aeabi_dcmplt
.LVL2:
	mov	r3, r0
	cmp	r3, #0
	beq	.L35
	.loc 1 96 13
	ldr	r4, [sp]
	ldr	r3, [sp, #4]
	eor	r5, r3, #-2147483648
	b	.L33
.L35:
	.loc 1 98 11
	ldrd	r4, [sp]
.L33:
	vmov	d7, r4, r5
	.loc 1 99 1
	vmov.f32	s0, s14
	vmov.f32	s1, s15
	add	sp, sp, #12
.LCFI11:
	@ sp needed
	pop	{r4, r5, pc}
.LFE211:
	.size	abs_val, .-abs_val
	.global	__aeabi_dadd
	.global	__aeabi_ddiv
	.section	.text.ma_filter3,"ax",%progbits
	.align	1
	.global	ma_filter3
	.syntax unified
	.thumb
	.thumb_func
	.fpu fpv4-sp-d16
	.type	ma_filter3, %function
ma_filter3:
.LFB212:
	.loc 1 107 1
	@ args = 0, pretend = 0, frame = 32
	@ frame_needed = 0, uses_anonymous_args = 0
	push	{lr}
.LCFI12:
	sub	sp, sp, #36
.LCFI13:
	vstr.64	d0, [sp, #16]
	vstr.64	d1, [sp, #8]
	vstr.64	d2, [sp]
	.loc 1 108 19
	ldrd	r2, [sp, #8]
	ldrd	r0, [sp, #16]
	bl	__aeabi_dadd
.LVL3:
	mov	r2, r0
	mov	r3, r1
	.loc 1 108 10
	ldrd	r0, [sp]
	bl	__aeabi_dadd
.LVL4:
	mov	r2, r0
	mov	r3, r1
	strd	r2, [sp, #24]
	.loc 1 109 9
	mov	r2, #0
	ldr	r3, .L38
	ldrd	r0, [sp, #24]
	bl	__aeabi_ddiv
.LVL5:
	mov	r2, r0
	mov	r3, r1
	strd	r2, [sp, #24]
	.loc 1 110 10
	ldrd	r2, [sp, #24]
	vmov	d7, r2, r3
	.loc 1 111 1
	vmov.f32	s0, s14
	vmov.f32	s1, s15
	add	sp, sp, #36
.LCFI14:
	@ sp needed
	ldr	pc, [sp], #4
.L39:
	.align	2
.L38:
	.word	1074266112
.LFE212:
	.size	ma_filter3, .-ma_filter3
	.section	.text.ma_filter4,"ax",%progbits
	.align	1
	.global	ma_filter4
	.syntax unified
	.thumb
	.thumb_func
	.fpu fpv4-sp-d16
	.type	ma_filter4, %function
ma_filter4:
.LFB213:
	.loc 1 119 1
	@ args = 0, pretend = 0, frame = 40
	@ frame_needed = 0, uses_anonymous_args = 0
	push	{lr}
.LCFI15:
	sub	sp, sp, #44
.LCFI16:
	vstr.64	d0, [sp, #24]
	vstr.64	d1, [sp, #16]
	vstr.64	d2, [sp, #8]
	vstr.64	d3, [sp]
	.loc 1 120 19
	ldrd	r2, [sp, #16]
	ldrd	r0, [sp, #24]
	bl	__aeabi_dadd
.LVL6:
	mov	r2, r0
	mov	r3, r1
	mov	r0, r2
	mov	r1, r3
	.loc 1 120 21
	ldrd	r2, [sp, #8]
	bl	__aeabi_dadd
.LVL7:
	mov	r2, r0
	mov	r3, r1
	.loc 1 120 10
	ldrd	r0, [sp]
	bl	__aeabi_dadd
.LVL8:
	mov	r2, r0
	mov	r3, r1
	strd	r2, [sp, #32]
	.loc 1 121 9
	mov	r2, #0
	ldr	r3, .L42
	ldrd	r0, [sp, #32]
	bl	__aeabi_ddiv
.LVL9:
	mov	r2, r0
	mov	r3, r1
	strd	r2, [sp, #32]
	.loc 1 122 10
	ldrd	r2, [sp, #32]
	vmov	d7, r2, r3
	.loc 1 123 1
	vmov.f32	s0, s14
	vmov.f32	s1, s15
	add	sp, sp, #44
.LCFI17:
	@ sp needed
	ldr	pc, [sp], #4
.L43:
	.align	2
.L42:
	.word	1074790400
.LFE213:
	.size	ma_filter4, .-ma_filter4
	.section	.text.ma_filter10,"ax",%progbits
	.align	1
	.global	ma_filter10
	.syntax unified
	.thumb
	.thumb_func
	.fpu fpv4-sp-d16
	.type	ma_filter10, %function
ma_filter10:
.LFB214:
	.loc 1 131 1
	@ args = 16, pretend = 0, frame = 72
	@ frame_needed = 0, uses_anonymous_args = 0
	push	{lr}
.LCFI18:
	sub	sp, sp, #76
.LCFI19:
	vstr.64	d0, [sp, #56]
	vstr.64	d1, [sp, #48]
	vstr.64	d2, [sp, #40]
	vstr.64	d3, [sp, #32]
	vstr.64	d4, [sp, #24]
	vstr.64	d5, [sp, #16]
	vstr.64	d6, [sp, #8]
	vstr.64	d7, [sp]
	.loc 1 132 19
	ldrd	r2, [sp, #48]
	ldrd	r0, [sp, #56]
	bl	__aeabi_dadd
.LVL10:
	mov	r2, r0
	mov	r3, r1
	mov	r0, r2
	mov	r1, r3
	.loc 1 132 21
	ldrd	r2, [sp, #40]
	bl	__aeabi_dadd
.LVL11:
	mov	r2, r0
	mov	r3, r1
	mov	r0, r2
	mov	r1, r3
	.loc 1 132 23
	ldrd	r2, [sp, #32]
	bl	__aeabi_dadd
.LVL12:
	mov	r2, r0
	mov	r3, r1
	mov	r0, r2
	mov	r1, r3
	.loc 1 132 25
	ldrd	r2, [sp, #24]
	bl	__aeabi_dadd
.LVL13:
	mov	r2, r0
	mov	r3, r1
	mov	r0, r2
	mov	r1, r3
	.loc 1 132 27
	ldrd	r2, [sp, #16]
	bl	__aeabi_dadd
.LVL14:
	mov	r2, r0
	mov	r3, r1
	mov	r0, r2
	mov	r1, r3
	.loc 1 132 29
	ldrd	r2, [sp, #8]
	bl	__aeabi_dadd
.LVL15:
	mov	r2, r0
	mov	r3, r1
	mov	r0, r2
	mov	r1, r3
	.loc 1 132 31
	ldrd	r2, [sp]
	bl	__aeabi_dadd
.LVL16:
	mov	r2, r0
	mov	r3, r1
	mov	r0, r2
	mov	r1, r3
	.loc 1 132 33
	ldrd	r2, [sp, #80]
	bl	__aeabi_dadd
.LVL17:
	mov	r2, r0
	mov	r3, r1
	.loc 1 132 10
	ldrd	r0, [sp, #88]
	bl	__aeabi_dadd
.LVL18:
	mov	r2, r0
	mov	r3, r1
	strd	r2, [sp, #64]
	.loc 1 133 9
	mov	r2, #0
	ldr	r3, .L46
	ldrd	r0, [sp, #64]
	bl	__aeabi_ddiv
.LVL19:
	mov	r2, r0
	mov	r3, r1
	strd	r2, [sp, #64]
	.loc 1 134 10
	ldrd	r2, [sp, #64]
	vmov	d7, r2, r3
	.loc 1 135 1
	vmov.f32	s0, s14
	vmov.f32	s1, s15
	add	sp, sp, #76
.LCFI20:
	@ sp needed
	ldr	pc, [sp], #4
.L47:
	.align	2
.L46:
	.word	1076101120
.LFE214:
	.size	ma_filter10, .-ma_filter10
	.global	__aeabi_f2d
	.global	__aeabi_dmul
	.section	.text.central_difference,"ax",%progbits
	.align	1
	.global	central_difference
	.syntax unified
	.thumb
	.thumb_func
	.fpu fpv4-sp-d16
	.type	central_difference, %function
central_difference:
.LFB215:
	.loc 1 143 60
	@ args = 0, pretend = 0, frame = 32
	@ frame_needed = 0, uses_anonymous_args = 0
	push	{r4, r5, lr}
.LCFI21:
	sub	sp, sp, #36
.LCFI22:
	vstr.64	d0, [sp, #8]
	vstr.64	d1, [sp]
	.loc 1 144 9
	mov	r3, #1056964608
	str	r3, [sp, #28]	@ float
	.loc 1 145 9
	mov	r3, #-1090519040
	str	r3, [sp, #24]	@ float
	.loc 1 146 33
	ldr	r0, [sp, #28]	@ float
	bl	__aeabi_f2d
.LVL20:
	ldrd	r2, [sp, #8]
	bl	__aeabi_dmul
.LVL21:
	mov	r2, r0
	mov	r3, r1
	mov	r4, r2
	mov	r5, r3
	.loc 1 146 50
	ldr	r0, [sp, #24]	@ float
	bl	__aeabi_f2d
.LVL22:
	ldrd	r2, [sp]
	bl	__aeabi_dmul
.LVL23:
	mov	r2, r0
	mov	r3, r1
	.loc 1 146 10
	mov	r0, r4
	mov	r1, r5
	bl	__aeabi_dadd
.LVL24:
	mov	r2, r0
	mov	r3, r1
	strd	r2, [sp, #16]
	.loc 1 147 17
	vldr.64	d0, [sp, #16]
	bl	abs_val
	vstr.64	d0, [sp, #16]
	.loc 1 148 10
	ldrd	r2, [sp, #16]
	vmov	d7, r2, r3
	.loc 1 149 1
	vmov.f32	s0, s14
	vmov.f32	s1, s15
	add	sp, sp, #36
.LCFI23:
	@ sp needed
	pop	{r4, r5, pc}
.LFE215:
	.size	central_difference, .-central_difference
	.section	.debug_frame,"",%progbits
.Lframe0:
	.4byte	.LECIE0-.LSCIE0
.LSCIE0:
	.4byte	0xffffffff
	.byte	0x3
	.ascii	"\000"
	.uleb128 0x1
	.sleb128 -4
	.uleb128 0xe
	.byte	0xc
	.uleb128 0xd
	.uleb128 0
	.align	2
.LECIE0:
.LSFDE0:
	.4byte	.LEFDE0-.LASFDE0
.LASFDE0:
	.4byte	.Lframe0
	.4byte	.LFB207
	.4byte	.LFE207-.LFB207
	.byte	0x4
	.4byte	.LCFI0-.LFB207
	.byte	0xe
	.uleb128 0x4
	.byte	0x8e
	.uleb128 0x1
	.byte	0x4
	.4byte	.LCFI1-.LCFI0
	.byte	0xe
	.uleb128 0x30
	.byte	0x4
	.4byte	.LCFI2-.LCFI1
	.byte	0xe
	.uleb128 0x4
	.align	2
.LEFDE0:
.LSFDE2:
	.4byte	.LEFDE2-.LASFDE2
.LASFDE2:
	.4byte	.Lframe0
	.4byte	.LFB208
	.4byte	.LFE208-.LFB208
	.byte	0x4
	.4byte	.LCFI3-.LFB208
	.byte	0xe
	.uleb128 0x8
	.byte	0x4
	.4byte	.LCFI4-.LCFI3
	.byte	0xe
	.uleb128 0
	.align	2
.LEFDE2:
.LSFDE4:
	.4byte	.LEFDE4-.LASFDE4
.LASFDE4:
	.4byte	.Lframe0
	.4byte	.LFB209
	.4byte	.LFE209-.LFB209
	.byte	0x4
	.4byte	.LCFI5-.LFB209
	.byte	0xe
	.uleb128 0x4
	.byte	0x8e
	.uleb128 0x1
	.byte	0x4
	.4byte	.LCFI6-.LCFI5
	.byte	0xe
	.uleb128 0x18
	.byte	0x4
	.4byte	.LCFI7-.LCFI6
	.byte	0xe
	.uleb128 0x4
	.align	2
.LEFDE4:
.LSFDE6:
	.4byte	.LEFDE6-.LASFDE6
.LASFDE6:
	.4byte	.Lframe0
	.4byte	.LFB210
	.4byte	.LFE210-.LFB210
	.byte	0x4
	.4byte	.LCFI8-.LFB210
	.byte	0xe
	.uleb128 0x8
	.byte	0x83
	.uleb128 0x2
	.byte	0x8e
	.uleb128 0x1
	.align	2
.LEFDE6:
.LSFDE8:
	.4byte	.LEFDE8-.LASFDE8
.LASFDE8:
	.4byte	.Lframe0
	.4byte	.LFB211
	.4byte	.LFE211-.LFB211
	.byte	0x4
	.4byte	.LCFI9-.LFB211
	.byte	0xe
	.uleb128 0xc
	.byte	0x84
	.uleb128 0x3
	.byte	0x85
	.uleb128 0x2
	.byte	0x8e
	.uleb128 0x1
	.byte	0x4
	.4byte	.LCFI10-.LCFI9
	.byte	0xe
	.uleb128 0x18
	.byte	0x4
	.4byte	.LCFI11-.LCFI10
	.byte	0xe
	.uleb128 0xc
	.align	2
.LEFDE8:
.LSFDE10:
	.4byte	.LEFDE10-.LASFDE10
.LASFDE10:
	.4byte	.Lframe0
	.4byte	.LFB212
	.4byte	.LFE212-.LFB212
	.byte	0x4
	.4byte	.LCFI12-.LFB212
	.byte	0xe
	.uleb128 0x4
	.byte	0x8e
	.uleb128 0x1
	.byte	0x4
	.4byte	.LCFI13-.LCFI12
	.byte	0xe
	.uleb128 0x28
	.byte	0x4
	.4byte	.LCFI14-.LCFI13
	.byte	0xe
	.uleb128 0x4
	.align	2
.LEFDE10:
.LSFDE12:
	.4byte	.LEFDE12-.LASFDE12
.LASFDE12:
	.4byte	.Lframe0
	.4byte	.LFB213
	.4byte	.LFE213-.LFB213
	.byte	0x4
	.4byte	.LCFI15-.LFB213
	.byte	0xe
	.uleb128 0x4
	.byte	0x8e
	.uleb128 0x1
	.byte	0x4
	.4byte	.LCFI16-.LCFI15
	.byte	0xe
	.uleb128 0x30
	.byte	0x4
	.4byte	.LCFI17-.LCFI16
	.byte	0xe
	.uleb128 0x4
	.align	2
.LEFDE12:
.LSFDE14:
	.4byte	.LEFDE14-.LASFDE14
.LASFDE14:
	.4byte	.Lframe0
	.4byte	.LFB214
	.4byte	.LFE214-.LFB214
	.byte	0x4
	.4byte	.LCFI18-.LFB214
	.byte	0xe
	.uleb128 0x4
	.byte	0x8e
	.uleb128 0x1
	.byte	0x4
	.4byte	.LCFI19-.LCFI18
	.byte	0xe
	.uleb128 0x50
	.byte	0x4
	.4byte	.LCFI20-.LCFI19
	.byte	0xe
	.uleb128 0x4
	.align	2
.LEFDE14:
.LSFDE16:
	.4byte	.LEFDE16-.LASFDE16
.LASFDE16:
	.4byte	.Lframe0
	.4byte	.LFB215
	.4byte	.LFE215-.LFB215
	.byte	0x4
	.4byte	.LCFI21-.LFB215
	.byte	0xe
	.uleb128 0xc
	.byte	0x84
	.uleb128 0x3
	.byte	0x85
	.uleb128 0x2
	.byte	0x8e
	.uleb128 0x1
	.byte	0x4
	.4byte	.LCFI22-.LCFI21
	.byte	0xe
	.uleb128 0x30
	.byte	0x4
	.4byte	.LCFI23-.LCFI22
	.byte	0xe
	.uleb128 0xc
	.align	2
.LEFDE16:
	.text
.Letext0:
	.file 2 "C:/Program Files/SEGGER/SEGGER Embedded Studio for ARM 5.10b/include/__crossworks.h"
	.file 3 "C:/Program Files/SEGGER/SEGGER Embedded Studio for ARM 5.10b/include/stdio.h"
	.file 4 "C:/Program Files/SEGGER/SEGGER Embedded Studio for ARM 5.10b/include/stdint.h"
	.file 5 "C:/Users/Keld/AppData/Local/SEGGER/SEGGER Embedded Studio/v3/packages/CMSIS_5/CMSIS/Core/Include/core_cm4.h"
	.file 6 "../../../nRF5_SDK_14.2.0/components/toolchain/system_nrf52.h"
	.file 7 "../../../nRF5_SDK_14.2.0/components/libraries/util/sdk_errors.h"
	.file 8 "../../../nRF5_SDK_14.2.0/components/libraries/util/app_util.h"
	.file 9 "../../../nRF5_SDK_14.2.0/components/libraries/timer/app_timer.h"
	.file 10 "c:\\users\\keld\\documents\\github\\pro5_unitek\\code\\ss_twr_init\\movementstruct\\movementstruct.h"
	.file 11 "C:\\Users\\Keld\\Documents\\GitHub\\pro5_unitek\\code\\ss_twr_init\\movementAnalysis\\movementAnalysis.h"